target datalayout = "e-m:e-p270:32:32-p271:32:32-p272:64:64-i64:64-i128:128-f80:128-n8:16:32:64-S128"
target triple = "x86_64-pc-linux-gnu"

%struct.ggml_type_traits = type { ptr, i64, i64, i64, i8, ptr, ptr }
%struct.ggml_tensor = type { i32, ptr, [4 x i64], [4 x i64], i32, [16 x i32], i32, [10 x ptr], ptr, i64, ptr, [64 x i8], ptr, [8 x i8] }

@.str.12 = private unnamed_addr constant [113 x i8] c"generated/home/dtcxzyw/WorkSpace/Projects/compilers/llvm-opt-benchmark/bench/llama.cpp/llama.cpp/ggml/src/ggml.c\00", align 1
@.str.13 = private unnamed_addr constant [23 x i8] c"GGML_ASSERT(%s) failed\00", align 1
@.str.23 = private unnamed_addr constant [10 x i8] c"%s (view)\00", align 1
@.str.485 = private unnamed_addr constant [24 x i8] c"ggml_is_contiguous_1(a)\00", align 1

; Function Attrs: nounwind uwtable
define i64 @ggml_blck_size(i32 noundef %0) #5 {
  %2 = alloca i32, align 4
  store i32 %0, ptr %2, align 4, !tbaa !8
  %3 = load i32, ptr %2, align 4, !tbaa !8
  %4 = zext i32 %3 to i64
  %5 = getelementptr inbounds nuw [39 x %struct.ggml_type_traits], ptr @type_traits, i64 0, i64 %4
  %6 = getelementptr inbounds nuw %struct.ggml_type_traits, ptr %5, i32 0, i32 1
  %7 = load i64, ptr %6, align 8, !tbaa !61
  ret i64 %7
}

; Function Attrs: nounwind uwtable
define i64 @ggml_type_size(i32 noundef %0) #5 {
  %2 = alloca i32, align 4
  store i32 %0, ptr %2, align 4, !tbaa !8
  %3 = load i32, ptr %2, align 4, !tbaa !8
  %4 = zext i32 %3 to i64
  %5 = getelementptr inbounds nuw [39 x %struct.ggml_type_traits], ptr @type_traits, i64 0, i64 %4
  %6 = getelementptr inbounds nuw %struct.ggml_type_traits, ptr %5, i32 0, i32 3
  %7 = load i64, ptr %6, align 8, !tbaa !63
  ret i64 %7
}

; Function Attrs: nounwind uwtable
define ptr @ggml_new_tensor(ptr noundef %0, i32 noundef %1, i32 noundef %2, ptr noundef %3) #5 {
  %5 = alloca ptr, align 8
  %6 = alloca i32, align 4
  %7 = alloca i32, align 4
  %8 = alloca ptr, align 8
  store ptr %0, ptr %5, align 8, !tbaa !48
  store i32 %1, ptr %6, align 4, !tbaa !8
  store i32 %2, ptr %7, align 4, !tbaa !8
  store ptr %3, ptr %8, align 8, !tbaa !88
  %9 = load ptr, ptr %5, align 8, !tbaa !48
  %10 = load i32, ptr %6, align 4, !tbaa !8
  %11 = load i32, ptr %7, align 4, !tbaa !8
  %12 = load ptr, ptr %8, align 8, !tbaa !88
  %13 = call ptr @ggml_new_tensor_impl(ptr noundef %9, i32 noundef %10, i32 noundef %11, ptr noundef %12, ptr noundef null, i64 noundef 0)
  ret ptr %13
}

; Function Attrs: nounwind uwtable
define internal zeroext i1 @ggml_is_contiguous_n(ptr noundef %0, i32 noundef %1) #5 {
  %3 = alloca i1, align 1
  %4 = alloca ptr, align 8
  %5 = alloca i32, align 4
  %6 = alloca i64, align 8
  %7 = alloca i32, align 4
  %8 = alloca i32, align 4
  store ptr %0, ptr %4, align 8, !tbaa !54
  store i32 %1, ptr %5, align 4, !tbaa !8
  call void @llvm.lifetime.start.p0(i64 8, ptr %6) #14
  %9 = load ptr, ptr %4, align 8, !tbaa !54
  %10 = getelementptr inbounds nuw %struct.ggml_tensor, ptr %9, i32 0, i32 0
  %11 = load i32, ptr %10, align 8, !tbaa !56
  %12 = call i64 @ggml_type_size(i32 noundef %11)
  store i64 %12, ptr %6, align 8, !tbaa !19
  %13 = load ptr, ptr %4, align 8, !tbaa !54
  %14 = getelementptr inbounds nuw %struct.ggml_tensor, ptr %13, i32 0, i32 2
  %15 = getelementptr inbounds [4 x i64], ptr %14, i64 0, i64 0
  %16 = load i64, ptr %15, align 8, !tbaa !19
  %17 = load ptr, ptr %4, align 8, !tbaa !54
  %18 = getelementptr inbounds nuw %struct.ggml_tensor, ptr %17, i32 0, i32 0
  %19 = load i32, ptr %18, align 8, !tbaa !56
  %20 = call i64 @ggml_blck_size(i32 noundef %19)
  %21 = icmp ne i64 %16, %20
  br i1 %21, label %22, label %30

22:                                               ; preds = %2
  %23 = load ptr, ptr %4, align 8, !tbaa !54
  %24 = getelementptr inbounds nuw %struct.ggml_tensor, ptr %23, i32 0, i32 3
  %25 = getelementptr inbounds [4 x i64], ptr %24, i64 0, i64 0
  %26 = load i64, ptr %25, align 8, !tbaa !19
  %27 = load i64, ptr %6, align 8, !tbaa !19
  %28 = icmp ne i64 %26, %27
  br i1 %28, label %29, label %30

29:                                               ; preds = %22
  store i1 false, ptr %3, align 1
  store i32 1, ptr %7, align 4
  br label %99

30:                                               ; preds = %22, %2
  %31 = load ptr, ptr %4, align 8, !tbaa !54
  %32 = getelementptr inbounds nuw %struct.ggml_tensor, ptr %31, i32 0, i32 2
  %33 = getelementptr inbounds [4 x i64], ptr %32, i64 0, i64 0
  %34 = load i64, ptr %33, align 8, !tbaa !19
  %35 = load ptr, ptr %4, align 8, !tbaa !54
  %36 = getelementptr inbounds nuw %struct.ggml_tensor, ptr %35, i32 0, i32 0
  %37 = load i32, ptr %36, align 8, !tbaa !56
  %38 = call i64 @ggml_blck_size(i32 noundef %37)
  %39 = sdiv i64 %34, %38
  %40 = load i64, ptr %6, align 8, !tbaa !19
  %41 = mul i64 %40, %39
  store i64 %41, ptr %6, align 8, !tbaa !19
  call void @llvm.lifetime.start.p0(i64 4, ptr %8) #14
  store i32 1, ptr %8, align 4, !tbaa !8
  br label %42

42:                                               ; preds = %93, %30
  %43 = load i32, ptr %8, align 4, !tbaa !8
  %44 = icmp slt i32 %43, 4
  br i1 %44, label %46, label %45

45:                                               ; preds = %42
  store i32 2, ptr %7, align 4
  br label %96

46:                                               ; preds = %42
  %47 = load ptr, ptr %4, align 8, !tbaa !54
  %48 = getelementptr inbounds nuw %struct.ggml_tensor, ptr %47, i32 0, i32 2
  %49 = load i32, ptr %8, align 4, !tbaa !8
  %50 = sext i32 %49 to i64
  %51 = getelementptr inbounds [4 x i64], ptr %48, i64 0, i64 %50
  %52 = load i64, ptr %51, align 8, !tbaa !19
  %53 = icmp ne i64 %52, 1
  br i1 %53, label %54, label %92

54:                                               ; preds = %46
  %55 = load i32, ptr %8, align 4, !tbaa !8
  %56 = load i32, ptr %5, align 4, !tbaa !8
  %57 = icmp sgt i32 %55, %56
  br i1 %57, label %58, label %77

58:                                               ; preds = %54
  %59 = load ptr, ptr %4, align 8, !tbaa !54
  %60 = getelementptr inbounds nuw %struct.ggml_tensor, ptr %59, i32 0, i32 3
  %61 = load i32, ptr %8, align 4, !tbaa !8
  %62 = sext i32 %61 to i64
  %63 = getelementptr inbounds [4 x i64], ptr %60, i64 0, i64 %62
  %64 = load i64, ptr %63, align 8, !tbaa !19
  %65 = load i64, ptr %6, align 8, !tbaa !19
  %66 = icmp ne i64 %64, %65
  br i1 %66, label %67, label %68

67:                                               ; preds = %58
  store i1 false, ptr %3, align 1
  store i32 1, ptr %7, align 4
  br label %96

68:                                               ; preds = %58
  %69 = load ptr, ptr %4, align 8, !tbaa !54
  %70 = getelementptr inbounds nuw %struct.ggml_tensor, ptr %69, i32 0, i32 2
  %71 = load i32, ptr %8, align 4, !tbaa !8
  %72 = sext i32 %71 to i64
  %73 = getelementptr inbounds [4 x i64], ptr %70, i64 0, i64 %72
  %74 = load i64, ptr %73, align 8, !tbaa !19
  %75 = load i64, ptr %6, align 8, !tbaa !19
  %76 = mul i64 %75, %74
  store i64 %76, ptr %6, align 8, !tbaa !19
  br label %91

77:                                               ; preds = %54
  %78 = load ptr, ptr %4, align 8, !tbaa !54
  %79 = getelementptr inbounds nuw %struct.ggml_tensor, ptr %78, i32 0, i32 2
  %80 = load i32, ptr %8, align 4, !tbaa !8
  %81 = sext i32 %80 to i64
  %82 = getelementptr inbounds [4 x i64], ptr %79, i64 0, i64 %81
  %83 = load i64, ptr %82, align 8, !tbaa !19
  %84 = load ptr, ptr %4, align 8, !tbaa !54
  %85 = getelementptr inbounds nuw %struct.ggml_tensor, ptr %84, i32 0, i32 3
  %86 = load i32, ptr %8, align 4, !tbaa !8
  %87 = sext i32 %86 to i64
  %88 = getelementptr inbounds [4 x i64], ptr %85, i64 0, i64 %87
  %89 = load i64, ptr %88, align 8, !tbaa !19
  %90 = mul i64 %83, %89
  store i64 %90, ptr %6, align 8, !tbaa !19
  br label %91

91:                                               ; preds = %77, %68
  br label %92

92:                                               ; preds = %91, %46
  br label %93

93:                                               ; preds = %92
  %94 = load i32, ptr %8, align 4, !tbaa !8
  %95 = add nsw i32 %94, 1
  store i32 %95, ptr %8, align 4, !tbaa !8
  br label %42, !llvm.loop !70

96:                                               ; preds = %67, %45
  call void @llvm.lifetime.end.p0(i64 4, ptr %8) #14
  %97 = load i32, ptr %7, align 4
  switch i32 %97, label %99 [
    i32 2, label %98
  ]

98:                                               ; preds = %96
  store i1 true, ptr %3, align 1
  store i32 1, ptr %7, align 4
  br label %99

99:                                               ; preds = %98, %96, %29
  call void @llvm.lifetime.end.p0(i64 8, ptr %6) #14
  %100 = load i1, ptr %3, align 1
  ret i1 %100
}

; Function Attrs: nounwind uwtable
define internal void @ggml_set_op_params_i32(ptr noundef %0, i32 noundef %1, i32 noundef %2) #5 {
  %4 = alloca ptr, align 8
  %5 = alloca i32, align 4
  %6 = alloca i32, align 4
  store ptr %0, ptr %4, align 8, !tbaa !54
  store i32 %1, ptr %5, align 4, !tbaa !8
  store i32 %2, ptr %6, align 4, !tbaa !8
  %7 = load i32, ptr %6, align 4, !tbaa !8
  %8 = load ptr, ptr %4, align 8, !tbaa !54
  %9 = getelementptr inbounds nuw %struct.ggml_tensor, ptr %8, i32 0, i32 5
  %10 = getelementptr inbounds [16 x i32], ptr %9, i64 0, i64 0
  %11 = load i32, ptr %5, align 4, !tbaa !8
  %12 = zext i32 %11 to i64
  %13 = getelementptr inbounds nuw i32, ptr %10, i64 %12
  store i32 %7, ptr %13, align 4, !tbaa !8
  ret void
}

; Function Attrs: nounwind uwtable
define ptr @ggml_dup_tensor(ptr noundef %0, ptr noundef %1) #5 {
  %3 = alloca ptr, align 8
  %4 = alloca ptr, align 8
  store ptr %0, ptr %3, align 8, !tbaa !48
  store ptr %1, ptr %4, align 8, !tbaa !54
  %5 = load ptr, ptr %3, align 8, !tbaa !48
  %6 = load ptr, ptr %4, align 8, !tbaa !54
  %7 = getelementptr inbounds nuw %struct.ggml_tensor, ptr %6, i32 0, i32 0
  %8 = load i32, ptr %7, align 8, !tbaa !56
  %9 = load ptr, ptr %4, align 8, !tbaa !54
  %10 = getelementptr inbounds nuw %struct.ggml_tensor, ptr %9, i32 0, i32 2
  %11 = getelementptr inbounds [4 x i64], ptr %10, i64 0, i64 0
  %12 = call ptr @ggml_new_tensor(ptr noundef %5, i32 noundef %8, i32 noundef 4, ptr noundef %11)
  ret ptr %12
}

; Function Attrs: nounwind uwtable
define ptr @ggml_view_tensor(ptr noundef %0, ptr noundef %1) #5 {
  %3 = alloca ptr, align 8
  %4 = alloca ptr, align 8
  %5 = alloca ptr, align 8
  %6 = alloca i32, align 4
  store ptr %0, ptr %3, align 8, !tbaa !48
  store ptr %1, ptr %4, align 8, !tbaa !54
  call void @llvm.lifetime.start.p0(i64 8, ptr %5) #14
  %7 = load ptr, ptr %3, align 8, !tbaa !48
  %8 = load ptr, ptr %4, align 8, !tbaa !54
  %9 = getelementptr inbounds nuw %struct.ggml_tensor, ptr %8, i32 0, i32 0
  %10 = load i32, ptr %9, align 8, !tbaa !56
  %11 = load ptr, ptr %4, align 8, !tbaa !54
  %12 = getelementptr inbounds nuw %struct.ggml_tensor, ptr %11, i32 0, i32 2
  %13 = getelementptr inbounds [4 x i64], ptr %12, i64 0, i64 0
  %14 = load ptr, ptr %4, align 8, !tbaa !54
  %15 = call ptr @ggml_new_tensor_impl(ptr noundef %7, i32 noundef %10, i32 noundef 4, ptr noundef %13, ptr noundef %14, i64 noundef 0)
  store ptr %15, ptr %5, align 8, !tbaa !54
  %16 = load ptr, ptr %5, align 8, !tbaa !54
  %17 = load ptr, ptr %4, align 8, !tbaa !54
  %18 = getelementptr inbounds nuw %struct.ggml_tensor, ptr %17, i32 0, i32 11
  %19 = getelementptr inbounds [64 x i8], ptr %18, i64 0, i64 0
  %20 = call ptr (ptr, ptr, ...) @ggml_format_name(ptr noundef %16, ptr noundef @.str.23, ptr noundef %19)
  call void @llvm.lifetime.start.p0(i64 4, ptr %6) #14
  store i32 0, ptr %6, align 4, !tbaa !8
  br label %21

21:                                               ; preds = %37, %2
  %22 = load i32, ptr %6, align 4, !tbaa !8
  %23 = icmp slt i32 %22, 4
  br i1 %23, label %25, label %24

24:                                               ; preds = %21
  call void @llvm.lifetime.end.p0(i64 4, ptr %6) #14
  br label %40

25:                                               ; preds = %21
  %26 = load ptr, ptr %4, align 8, !tbaa !54
  %27 = getelementptr inbounds nuw %struct.ggml_tensor, ptr %26, i32 0, i32 3
  %28 = load i32, ptr %6, align 4, !tbaa !8
  %29 = sext i32 %28 to i64
  %30 = getelementptr inbounds [4 x i64], ptr %27, i64 0, i64 %29
  %31 = load i64, ptr %30, align 8, !tbaa !19
  %32 = load ptr, ptr %5, align 8, !tbaa !54
  %33 = getelementptr inbounds nuw %struct.ggml_tensor, ptr %32, i32 0, i32 3
  %34 = load i32, ptr %6, align 4, !tbaa !8
  %35 = sext i32 %34 to i64
  %36 = getelementptr inbounds [4 x i64], ptr %33, i64 0, i64 %35
  store i64 %31, ptr %36, align 8, !tbaa !19
  br label %37

37:                                               ; preds = %25
  %38 = load i32, ptr %6, align 4, !tbaa !8
  %39 = add nsw i32 %38, 1
  store i32 %39, ptr %6, align 4, !tbaa !8
  br label %21, !llvm.loop !101

40:                                               ; preds = %24
  %41 = load ptr, ptr %5, align 8, !tbaa !54
  call void @llvm.lifetime.end.p0(i64 8, ptr %5) #14
  ret ptr %41
}

; Function Attrs: nounwind uwtable
define zeroext i1 @ggml_is_contiguous_1(ptr noundef %0) #5 {
  %2 = alloca ptr, align 8
  store ptr %0, ptr %2, align 8, !tbaa !54
  %3 = load ptr, ptr %2, align 8, !tbaa !54
  %4 = call zeroext i1 @ggml_is_contiguous_n(ptr noundef %3, i32 noundef 1)
  ret i1 %4
}

; Function Attrs: nounwind uwtable
define internal ptr @ggml_unary_impl(ptr noundef %0, ptr noundef %1, i32 noundef %2, i1 noundef zeroext %3) #5 {
  %5 = alloca ptr, align 8
  %6 = alloca ptr, align 8
  %7 = alloca i32, align 4
  %8 = alloca i8, align 1
  %9 = alloca ptr, align 8
  store ptr %0, ptr %5, align 8, !tbaa !48
  store ptr %1, ptr %6, align 8, !tbaa !54
  store i32 %2, ptr %7, align 4, !tbaa !8
  %10 = zext i1 %3 to i8
  store i8 %10, ptr %8, align 1, !tbaa !72
  %11 = load ptr, ptr %6, align 8, !tbaa !54
  %12 = call zeroext i1 @ggml_is_contiguous_1(ptr noundef %11)
  br i1 %12, label %14, label %13

13:                                               ; preds = %4
  call void (ptr, i32, ptr, ...) @ggml_abort(ptr noundef @.str.12, i32 noundef 4729, ptr noundef @.str.13, ptr noundef @.str.485) #18
  unreachable

14:                                               ; preds = %4
  call void @llvm.lifetime.start.p0(i64 8, ptr %9) #14
  %15 = load i8, ptr %8, align 1, !tbaa !72, !range !66, !noundef !67
  %16 = trunc i8 %15 to i1
  br i1 %16, label %17, label %21

17:                                               ; preds = %14
  %18 = load ptr, ptr %5, align 8, !tbaa !48
  %19 = load ptr, ptr %6, align 8, !tbaa !54
  %20 = call ptr @ggml_view_tensor(ptr noundef %18, ptr noundef %19)
  br label %25

21:                                               ; preds = %14
  %22 = load ptr, ptr %5, align 8, !tbaa !48
  %23 = load ptr, ptr %6, align 8, !tbaa !54
  %24 = call ptr @ggml_dup_tensor(ptr noundef %22, ptr noundef %23)
  br label %25

25:                                               ; preds = %21, %17
  %26 = phi ptr [ %20, %17 ], [ %24, %21 ]
  store ptr %26, ptr %9, align 8, !tbaa !54
  %27 = load ptr, ptr %9, align 8, !tbaa !54
  %28 = load i32, ptr %7, align 4, !tbaa !8
  call void @ggml_set_op_params_i32(ptr noundef %27, i32 noundef 0, i32 noundef %28)
  %29 = load ptr, ptr %9, align 8, !tbaa !54
  %30 = getelementptr inbounds nuw %struct.ggml_tensor, ptr %29, i32 0, i32 4
  store i32 71, ptr %30, align 8, !tbaa !68
  %31 = load ptr, ptr %6, align 8, !tbaa !54
  %32 = load ptr, ptr %9, align 8, !tbaa !54
  %33 = getelementptr inbounds nuw %struct.ggml_tensor, ptr %32, i32 0, i32 7
  %34 = getelementptr inbounds [10 x ptr], ptr %33, i64 0, i64 0
  store ptr %31, ptr %34, align 8, !tbaa !54
  %35 = load ptr, ptr %9, align 8, !tbaa !54
  call void @llvm.lifetime.end.p0(i64 8, ptr %9) #14
  ret ptr %35
}

; Function Attrs: nounwind uwtable
define ptr @ggml_unary_inplace(ptr noundef %0, ptr noundef %1, i32 noundef %2) #5 {
  %4 = alloca ptr, align 8
  %5 = alloca ptr, align 8
  %6 = alloca i32, align 4
  store ptr %0, ptr %4, align 8, !tbaa !48
  store ptr %1, ptr %5, align 8, !tbaa !54
  store i32 %2, ptr %6, align 4, !tbaa !8
  %7 = load ptr, ptr %4, align 8, !tbaa !48
  %8 = load ptr, ptr %5, align 8, !tbaa !54
  %9 = load i32, ptr %6, align 4, !tbaa !8
  %10 = call ptr @ggml_unary_impl(ptr noundef %7, ptr noundef %8, i32 noundef %9, i1 noundef zeroext true)
  ret ptr %10
}