; Function Attrs: nounwind uwtable
define noundef ptr @ggml_unary_inplace(ptr noundef captures(none) %0, ptr noundef %1, i32 noundef %2) local_unnamed_addr #4 {
  %4 = load i32, ptr %1, align 8, !tbaa !40
  %5 = zext i32 %4 to i64
  %6 = getelementptr inbounds nuw [39 x %struct.ggml_type_traits], ptr @type_traits, i64 0, i64 %5, i32 3
  %7 = load i64, ptr %6, align 8, !tbaa !47
  %8 = getelementptr inbounds nuw i8, ptr %1, i64 16
  %9 = load i64, ptr %8, align 8, !tbaa !39
  %10 = getelementptr inbounds nuw [39 x %struct.ggml_type_traits], ptr @type_traits, i64 0, i64 %5, i32 1
  %11 = load i64, ptr %10, align 8, !tbaa !44
  %.not.i.i.i = icmp eq i64 %9, %11
  br i1 %.not.i.i.i, label %15, label %12

12:                                               ; preds = %3
  %13 = getelementptr inbounds nuw i8, ptr %1, i64 48
  %14 = load i64, ptr %13, align 8, !tbaa !39
  %.not30.i.i.i = icmp eq i64 %14, %7
  br i1 %.not30.i.i.i, label %15, label %.loopexit.i

15:                                               ; preds = %12, %3
  %16 = sdiv i64 %9, %11
  %17 = mul i64 %16, %7
  %18 = getelementptr inbounds nuw i8, ptr %1, i64 48
  br label %19

19:                                               ; preds = %31, %15
  %indvars.iv.i.i.i = phi i64 [ 1, %15 ], [ %indvars.iv.next.i.i.i, %31 ]
  %.02633.i.i.i = phi i64 [ %17, %15 ], [ %.1.i.i.i, %31 ]
  %20 = getelementptr inbounds nuw [4 x i64], ptr %8, i64 0, i64 %indvars.iv.i.i.i
  %21 = load i64, ptr %20, align 8, !tbaa !39
  %.not31.i.i.i = icmp eq i64 %21, 1
  br i1 %.not31.i.i.i, label %31, label %22

22:                                               ; preds = %19
  %23 = icmp samesign ugt i64 %indvars.iv.i.i.i, 1
  %24 = getelementptr inbounds nuw [4 x i64], ptr %18, i64 0, i64 %indvars.iv.i.i.i
  %25 = load i64, ptr %24, align 8, !tbaa !39
  br i1 %23, label %26, label %29

26:                                               ; preds = %22
  %.not32.i.i.i = icmp eq i64 %25, %.02633.i.i.i
  br i1 %.not32.i.i.i, label %27, label %.loopexit.i

27:                                               ; preds = %26
  %28 = mul i64 %21, %.02633.i.i.i
  br label %31

29:                                               ; preds = %22
  %30 = mul i64 %25, %21
  br label %31

31:                                               ; preds = %29, %27, %19
  %.1.i.i.i = phi i64 [ %28, %27 ], [ %30, %29 ], [ %.02633.i.i.i, %19 ]
  %indvars.iv.next.i.i.i = add nuw nsw i64 %indvars.iv.i.i.i, 1
  %exitcond.i.i.i = icmp eq i64 %indvars.iv.next.i.i.i, 4
  br i1 %exitcond.i.i.i, label %ggml_is_contiguous_1.exit.i, label %19, !llvm.loop !57

.loopexit.i:                                      ; preds = %26, %12
  tail call void (ptr, i32, ptr, ...) @ggml_abort(ptr noundef nonnull @.str.12, i32 noundef 4729, ptr noundef nonnull @.str.13, ptr noundef nonnull @.str.485) #47
  unreachable

ggml_is_contiguous_1.exit.i:                      ; preds = %31
  %32 = tail call fastcc ptr @ggml_new_tensor_impl(ptr noundef %0, i32 noundef %4, i32 noundef 4, ptr noundef nonnull %8, ptr noundef nonnull %1, i64 noundef 0)
  %33 = getelementptr inbounds nuw i8, ptr %1, i64 256
  %34 = tail call ptr (ptr, ptr, ...) @ggml_format_name(ptr noundef %32, ptr noundef nonnull @.str.23, ptr noundef nonnull %33)
  %35 = getelementptr inbounds nuw i8, ptr %32, i64 48
  br label %36

36:                                               ; preds = %36, %ggml_is_contiguous_1.exit.i
  %indvars.iv.i.i = phi i64 [ 0, %ggml_is_contiguous_1.exit.i ], [ %indvars.iv.next.i.i, %36 ]
  %37 = getelementptr inbounds nuw [4 x i64], ptr %18, i64 0, i64 %indvars.iv.i.i
  %38 = load i64, ptr %37, align 8, !tbaa !39
  %39 = getelementptr inbounds nuw [4 x i64], ptr %35, i64 0, i64 %indvars.iv.i.i
  store i64 %38, ptr %39, align 8, !tbaa !39
  %indvars.iv.next.i.i = add nuw nsw i64 %indvars.iv.i.i, 1
  %exitcond.not.i.i = icmp eq i64 %indvars.iv.next.i.i, 4
  br i1 %exitcond.not.i.i, label %ggml_unary_impl.exit, label %36, !llvm.loop !86

ggml_unary_impl.exit:                             ; preds = %36
  %40 = getelementptr inbounds nuw i8, ptr %32, i64 84
  store i32 %2, ptr %40, align 4, !tbaa !8
  %41 = getelementptr inbounds nuw i8, ptr %32, i64 80
  store i32 71, ptr %41, align 8, !tbaa !55
  %42 = getelementptr inbounds nuw i8, ptr %32, i64 152
  store ptr %1, ptr %42, align 8, !tbaa !81
  ret ptr %32
}